; Function Attrs: mustprogress uwtable
define internal void @"_ZNSt17_Function_handlerIFvPKcEZ4mainE4$_13E9_M_invokeERKSt9_Any_dataOS1_"(ptr nocapture noundef nonnull readonly align 8 dereferenceable(16) %0, ptr nocapture noundef nonnull readonly align 8 dereferenceable(8) %1) #14 align 2 {
  %.val = load ptr, ptr %0, align 8
  %.val2 = load ptr, ptr %1, align 8
  %3 = tail call noundef ptr @_ZN11cache_sim_t9constructEPKcS1_(ptr noundef %.val2, ptr noundef nonnull @.str.119)
  %4 = load ptr, ptr %.val, align 8
  store ptr %3, ptr %.val, align 8
  %.not.i.i.i.i.i = icmp eq ptr %4, null
  br i1 %.not.i.i.i.i.i, label %"_ZSt10__invoke_rIvRZ4mainE4$_13JPKcEENSt9enable_ifIX16is_invocable_r_vIT_T0_DpT1_EES5_E4typeEOS6_DpOS7_.exit", label %_ZNKSt14default_deleteI11cache_sim_tEclEPS0_.exit.i.i.i.i.i

_ZNKSt14default_deleteI11cache_sim_tEclEPS0_.exit.i.i.i.i.i: ; preds = %2
  %5 = load ptr, ptr %4, align 8
  %6 = getelementptr inbounds i8, ptr %5, i64 8
  %7 = load ptr, ptr %6, align 8
  tail call void %7(ptr noundef nonnull align 8 dereferenceable(153) %4) #34
  br label %"_ZSt10__invoke_rIvRZ4mainE4$_13JPKcEENSt9enable_ifIX16is_invocable_r_vIT_T0_DpT1_EES5_E4typeEOS6_DpOS7_.exit"

"_ZSt10__invoke_rIvRZ4mainE4$_13JPKcEENSt9enable_ifIX16is_invocable_r_vIT_T0_DpT1_EES5_E4typeEOS6_DpOS7_.exit": ; preds = %2, %_ZNKSt14default_deleteI11cache_sim_tEclEPS0_.exit.i.i.i.i.i
  ret void
}